target datalayout = "e-m:e-p270:32:32-p271:32:32-p272:64:64-i64:64-i128:128-f80:128-n8:16:32:64-S128"
target triple = "x86_64-pc-linux-gnu"

%struct.AVFilterContext = type { ptr, ptr, ptr, ptr, ptr, i32, ptr, ptr, i32, ptr, ptr, i32, i32, ptr, ptr, ptr, ptr, i32, ptr, i32, i32 }
%struct.MixContext = type { ptr, ptr, i32, i32, i32, float, ptr, i32, i32, i32, i32, ptr, ptr, ptr, ptr, float, ptr, i64, ptr }
%struct.AVRational = type { i32, i32 }
%struct.AVChannelLayout = type { i32, i32, %union.anon.1, ptr }
%union.anon.1 = type { i64 }
%struct.AVFilterLink = type { ptr, ptr, ptr, ptr, i32, i32, i32, i32, %struct.AVRational, i32, i32, i32, %struct.AVChannelLayout, %struct.AVRational, ptr, i32, %struct.AVFilterFormatsConfig, %struct.AVFilterFormatsConfig }
%struct.AVFilterFormatsConfig = type { ptr, ptr, ptr, ptr, ptr }

@.str.3 = private unnamed_addr constant [33 x i8] c"inputs:%d fmt:%s srate:%d cl:%s\0A\00", align 1

; Function Attrs: nounwind uwtable
define internal i32 @config_output(ptr noundef %0) #1 {
  %2 = alloca i32, align 4
  %3 = alloca ptr, align 8
  %4 = alloca ptr, align 8
  %5 = alloca ptr, align 8
  %6 = alloca i32, align 4
  %7 = alloca [64 x i8], align 16
  %8 = alloca %struct.AVRational, align 4
  %9 = alloca i32, align 4
  store ptr %0, ptr %3, align 8, !tbaa !51
  call void @llvm.lifetime.start.p0(i64 8, ptr %4) #9
  %10 = load ptr, ptr %3, align 8, !tbaa !51
  %11 = getelementptr inbounds nuw %struct.AVFilterLink, ptr %10, i32 0, i32 0
  %12 = load ptr, ptr %11, align 8, !tbaa !77
  store ptr %12, ptr %4, align 8, !tbaa !4
  call void @llvm.lifetime.start.p0(i64 8, ptr %5) #9
  %13 = load ptr, ptr %4, align 8, !tbaa !4
  %14 = getelementptr inbounds nuw %struct.AVFilterContext, ptr %13, i32 0, i32 9
  %15 = load ptr, ptr %14, align 8, !tbaa !9
  store ptr %15, ptr %5, align 8, !tbaa !22
  call void @llvm.lifetime.start.p0(i64 4, ptr %6) #9
  call void @llvm.lifetime.start.p0(i64 64, ptr %7) #9
  %16 = load ptr, ptr %3, align 8, !tbaa !51
  %17 = getelementptr inbounds nuw %struct.AVFilterLink, ptr %16, i32 0, i32 5
  %18 = load i32, ptr %17, align 4, !tbaa !82
  %19 = call i32 @av_sample_fmt_is_planar(i32 noundef %18)
  %20 = load ptr, ptr %5, align 8, !tbaa !22
  %21 = getelementptr inbounds nuw %struct.MixContext, ptr %20, i32 0, i32 10
  store i32 %19, ptr %21, align 4, !tbaa !83
  %22 = load ptr, ptr %3, align 8, !tbaa !51
  %23 = getelementptr inbounds nuw %struct.AVFilterLink, ptr %22, i32 0, i32 11
  %24 = load i32, ptr %23, align 8, !tbaa !84
  %25 = load ptr, ptr %5, align 8, !tbaa !22
  %26 = getelementptr inbounds nuw %struct.MixContext, ptr %25, i32 0, i32 9
  store i32 %24, ptr %26, align 8, !tbaa !85
  %27 = load ptr, ptr %3, align 8, !tbaa !51
  %28 = getelementptr inbounds nuw %struct.AVFilterLink, ptr %27, i32 0, i32 13
  %29 = getelementptr inbounds nuw %struct.AVRational, ptr %8, i32 0, i32 0
  store i32 1, ptr %29, align 4, !tbaa !86
  %30 = getelementptr inbounds nuw %struct.AVRational, ptr %8, i32 0, i32 1
  %31 = load ptr, ptr %3, align 8, !tbaa !51
  %32 = getelementptr inbounds nuw %struct.AVFilterLink, ptr %31, i32 0, i32 11
  %33 = load i32, ptr %32, align 8, !tbaa !84
  store i32 %33, ptr %30, align 4, !tbaa !87
  call void @llvm.memcpy.p0.p0.i64(ptr align 8 %28, ptr align 4 %8, i64 8, i1 false), !tbaa.struct !88
  %34 = load ptr, ptr %5, align 8, !tbaa !22
  %35 = getelementptr inbounds nuw %struct.MixContext, ptr %34, i32 0, i32 17
  store i64 -9223372036854775808, ptr %35, align 8, !tbaa !73
  %36 = call noalias ptr @av_mallocz(i64 noundef 24)
  %37 = load ptr, ptr %5, align 8, !tbaa !22
  %38 = getelementptr inbounds nuw %struct.MixContext, ptr %37, i32 0, i32 18
  store ptr %36, ptr %38, align 8, !tbaa !44
  %39 = load ptr, ptr %5, align 8, !tbaa !22
  %40 = getelementptr inbounds nuw %struct.MixContext, ptr %39, i32 0, i32 18
  %41 = load ptr, ptr %40, align 8, !tbaa !44
  %42 = icmp ne ptr %41, null
  br i1 %42, label %44, label %43

43:                                               ; preds = %1
  store i32 -12, ptr %2, align 4
  store i32 1, ptr %9, align 4
  br label %213

44:                                               ; preds = %1
  %45 = load ptr, ptr %5, align 8, !tbaa !22
  %46 = getelementptr inbounds nuw %struct.MixContext, ptr %45, i32 0, i32 2
  %47 = load i32, ptr %46, align 8, !tbaa !25
  %48 = sext i32 %47 to i64
  %49 = call noalias ptr @av_calloc(i64 noundef %48, i64 noundef 8)
  %50 = load ptr, ptr %5, align 8, !tbaa !22
  %51 = getelementptr inbounds nuw %struct.MixContext, ptr %50, i32 0, i32 11
  store ptr %49, ptr %51, align 8, !tbaa !40
  %52 = load ptr, ptr %5, align 8, !tbaa !22
  %53 = getelementptr inbounds nuw %struct.MixContext, ptr %52, i32 0, i32 11
  %54 = load ptr, ptr %53, align 8, !tbaa !40
  %55 = icmp ne ptr %54, null
  br i1 %55, label %57, label %56

56:                                               ; preds = %44
  store i32 -12, ptr %2, align 4
  store i32 1, ptr %9, align 4
  br label %213

57:                                               ; preds = %44
  %58 = load ptr, ptr %3, align 8, !tbaa !51
  %59 = getelementptr inbounds nuw %struct.AVFilterLink, ptr %58, i32 0, i32 12
  %60 = getelementptr inbounds nuw %struct.AVChannelLayout, ptr %59, i32 0, i32 1
  %61 = load i32, ptr %60, align 4, !tbaa !89
  %62 = load ptr, ptr %5, align 8, !tbaa !22
  %63 = getelementptr inbounds nuw %struct.MixContext, ptr %62, i32 0, i32 8
  store i32 %61, ptr %63, align 4, !tbaa !90
  store i32 0, ptr %6, align 4, !tbaa !24
  br label %64

64:                                               ; preds = %94, %57
  %65 = load i32, ptr %6, align 4, !tbaa !24
  %66 = load ptr, ptr %5, align 8, !tbaa !22
  %67 = getelementptr inbounds nuw %struct.MixContext, ptr %66, i32 0, i32 2
  %68 = load i32, ptr %67, align 8, !tbaa !25
  %69 = icmp slt i32 %65, %68
  br i1 %69, label %70, label %97

70:                                               ; preds = %64
  %71 = load ptr, ptr %3, align 8, !tbaa !51
  %72 = getelementptr inbounds nuw %struct.AVFilterLink, ptr %71, i32 0, i32 5
  %73 = load i32, ptr %72, align 4, !tbaa !82
  %74 = load ptr, ptr %5, align 8, !tbaa !22
  %75 = getelementptr inbounds nuw %struct.MixContext, ptr %74, i32 0, i32 8
  %76 = load i32, ptr %75, align 4, !tbaa !90
  %77 = call ptr @av_audio_fifo_alloc(i32 noundef %73, i32 noundef %76, i32 noundef 1024)
  %78 = load ptr, ptr %5, align 8, !tbaa !22
  %79 = getelementptr inbounds nuw %struct.MixContext, ptr %78, i32 0, i32 11
  %80 = load ptr, ptr %79, align 8, !tbaa !40
  %81 = load i32, ptr %6, align 4, !tbaa !24
  %82 = sext i32 %81 to i64
  %83 = getelementptr inbounds ptr, ptr %80, i64 %82
  store ptr %77, ptr %83, align 8, !tbaa !41
  %84 = load ptr, ptr %5, align 8, !tbaa !22
  %85 = getelementptr inbounds nuw %struct.MixContext, ptr %84, i32 0, i32 11
  %86 = load ptr, ptr %85, align 8, !tbaa !40
  %87 = load i32, ptr %6, align 4, !tbaa !24
  %88 = sext i32 %87 to i64
  %89 = getelementptr inbounds ptr, ptr %86, i64 %88
  %90 = load ptr, ptr %89, align 8, !tbaa !41
  %91 = icmp ne ptr %90, null
  br i1 %91, label %93, label %92

92:                                               ; preds = %70
  store i32 -12, ptr %2, align 4
  store i32 1, ptr %9, align 4
  br label %213

93:                                               ; preds = %70
  br label %94

94:                                               ; preds = %93
  %95 = load i32, ptr %6, align 4, !tbaa !24
  %96 = add nsw i32 %95, 1
  store i32 %96, ptr %6, align 4, !tbaa !24
  br label %64, !llvm.loop !91

97:                                               ; preds = %64
  %98 = load ptr, ptr %5, align 8, !tbaa !22
  %99 = getelementptr inbounds nuw %struct.MixContext, ptr %98, i32 0, i32 2
  %100 = load i32, ptr %99, align 8, !tbaa !25
  %101 = sext i32 %100 to i64
  %102 = call noalias ptr @av_malloc(i64 noundef %101)
  %103 = load ptr, ptr %5, align 8, !tbaa !22
  %104 = getelementptr inbounds nuw %struct.MixContext, ptr %103, i32 0, i32 12
  store ptr %102, ptr %104, align 8, !tbaa !70
  %105 = load ptr, ptr %5, align 8, !tbaa !22
  %106 = getelementptr inbounds nuw %struct.MixContext, ptr %105, i32 0, i32 12
  %107 = load ptr, ptr %106, align 8, !tbaa !70
  %108 = icmp ne ptr %107, null
  br i1 %108, label %110, label %109

109:                                              ; preds = %97
  store i32 -12, ptr %2, align 4
  store i32 1, ptr %9, align 4
  br label %213

110:                                              ; preds = %97
  %111 = load ptr, ptr %5, align 8, !tbaa !22
  %112 = getelementptr inbounds nuw %struct.MixContext, ptr %111, i32 0, i32 12
  %113 = load ptr, ptr %112, align 8, !tbaa !70
  %114 = load ptr, ptr %5, align 8, !tbaa !22
  %115 = getelementptr inbounds nuw %struct.MixContext, ptr %114, i32 0, i32 2
  %116 = load i32, ptr %115, align 8, !tbaa !25
  %117 = sext i32 %116 to i64
  call void @llvm.memset.p0.i64(ptr align 1 %113, i8 1, i64 %117, i1 false)
  %118 = load ptr, ptr %5, align 8, !tbaa !22
  %119 = getelementptr inbounds nuw %struct.MixContext, ptr %118, i32 0, i32 2
  %120 = load i32, ptr %119, align 8, !tbaa !25
  %121 = load ptr, ptr %5, align 8, !tbaa !22
  %122 = getelementptr inbounds nuw %struct.MixContext, ptr %121, i32 0, i32 3
  store i32 %120, ptr %122, align 4, !tbaa !92
  %123 = load ptr, ptr %5, align 8, !tbaa !22
  %124 = getelementptr inbounds nuw %struct.MixContext, ptr %123, i32 0, i32 2
  %125 = load i32, ptr %124, align 8, !tbaa !25
  %126 = sext i32 %125 to i64
  %127 = call noalias ptr @av_calloc(i64 noundef %126, i64 noundef 4)
  %128 = load ptr, ptr %5, align 8, !tbaa !22
  %129 = getelementptr inbounds nuw %struct.MixContext, ptr %128, i32 0, i32 13
  store ptr %127, ptr %129, align 8, !tbaa !93
  %130 = load ptr, ptr %5, align 8, !tbaa !22
  %131 = getelementptr inbounds nuw %struct.MixContext, ptr %130, i32 0, i32 2
  %132 = load i32, ptr %131, align 8, !tbaa !25
  %133 = sext i32 %132 to i64
  %134 = call noalias ptr @av_calloc(i64 noundef %133, i64 noundef 4)
  %135 = load ptr, ptr %5, align 8, !tbaa !22
  %136 = getelementptr inbounds nuw %struct.MixContext, ptr %135, i32 0, i32 16
  store ptr %134, ptr %136, align 8, !tbaa !48
  %137 = load ptr, ptr %5, align 8, !tbaa !22
  %138 = getelementptr inbounds nuw %struct.MixContext, ptr %137, i32 0, i32 13
  %139 = load ptr, ptr %138, align 8, !tbaa !93
  %140 = icmp ne ptr %139, null
  br i1 %140, label %141, label %146

141:                                              ; preds = %110
  %142 = load ptr, ptr %5, align 8, !tbaa !22
  %143 = getelementptr inbounds nuw %struct.MixContext, ptr %142, i32 0, i32 16
  %144 = load ptr, ptr %143, align 8, !tbaa !48
  %145 = icmp ne ptr %144, null
  br i1 %145, label %147, label %146

146:                                              ; preds = %141, %110
  store i32 -12, ptr %2, align 4
  store i32 1, ptr %9, align 4
  br label %213

147:                                              ; preds = %141
  store i32 0, ptr %6, align 4, !tbaa !24
  br label %148

148:                                              ; preds = %192, %147
  %149 = load i32, ptr %6, align 4, !tbaa !24
  %150 = load ptr, ptr %5, align 8, !tbaa !22
  %151 = getelementptr inbounds nuw %struct.MixContext, ptr %150, i32 0, i32 2
  %152 = load i32, ptr %151, align 8, !tbaa !25
  %153 = icmp slt i32 %149, %152
  br i1 %153, label %154, label %195

154:                                              ; preds = %148
  %155 = load ptr, ptr %5, align 8, !tbaa !22
  %156 = getelementptr inbounds nuw %struct.MixContext, ptr %155, i32 0, i32 15
  %157 = load float, ptr %156, align 8, !tbaa !46
  %158 = load ptr, ptr %5, align 8, !tbaa !22
  %159 = getelementptr inbounds nuw %struct.MixContext, ptr %158, i32 0, i32 14
  %160 = load ptr, ptr %159, align 8, !tbaa !39
  %161 = load i32, ptr %6, align 4, !tbaa !24
  %162 = sext i32 %161 to i64
  %163 = getelementptr inbounds float, ptr %160, i64 %162
  %164 = load float, ptr %163, align 4, !tbaa !47
  %165 = fcmp nsz oge float %164, 0.000000e+00
  br i1 %165, label %166, label %174

166:                                              ; preds = %154
  %167 = load ptr, ptr %5, align 8, !tbaa !22
  %168 = getelementptr inbounds nuw %struct.MixContext, ptr %167, i32 0, i32 14
  %169 = load ptr, ptr %168, align 8, !tbaa !39
  %170 = load i32, ptr %6, align 4, !tbaa !24
  %171 = sext i32 %170 to i64
  %172 = getelementptr inbounds float, ptr %169, i64 %171
  %173 = load float, ptr %172, align 4, !tbaa !47
  br label %183

174:                                              ; preds = %154
  %175 = load ptr, ptr %5, align 8, !tbaa !22
  %176 = getelementptr inbounds nuw %struct.MixContext, ptr %175, i32 0, i32 14
  %177 = load ptr, ptr %176, align 8, !tbaa !39
  %178 = load i32, ptr %6, align 4, !tbaa !24
  %179 = sext i32 %178 to i64
  %180 = getelementptr inbounds float, ptr %177, i64 %179
  %181 = load float, ptr %180, align 4, !tbaa !47
  %182 = fneg nsz float %181
  br label %183

183:                                              ; preds = %174, %166
  %184 = phi nsz float [ %173, %166 ], [ %182, %174 ]
  %185 = fdiv nsz float %157, %184
  %186 = load ptr, ptr %5, align 8, !tbaa !22
  %187 = getelementptr inbounds nuw %struct.MixContext, ptr %186, i32 0, i32 16
  %188 = load ptr, ptr %187, align 8, !tbaa !48
  %189 = load i32, ptr %6, align 4, !tbaa !24
  %190 = sext i32 %189 to i64
  %191 = getelementptr inbounds float, ptr %188, i64 %190
  store float %185, ptr %191, align 4, !tbaa !47
  br label %192

192:                                              ; preds = %183
  %193 = load i32, ptr %6, align 4, !tbaa !24
  %194 = add nsw i32 %193, 1
  store i32 %194, ptr %6, align 4, !tbaa !24
  br label %148, !llvm.loop !94

195:                                              ; preds = %148
  %196 = load ptr, ptr %5, align 8, !tbaa !22
  call void @calculate_scales(ptr noundef %196, i32 noundef 0)
  %197 = load ptr, ptr %3, align 8, !tbaa !51
  %198 = getelementptr inbounds nuw %struct.AVFilterLink, ptr %197, i32 0, i32 12
  %199 = getelementptr inbounds [64 x i8], ptr %7, i64 0, i64 0
  %200 = call i32 @av_channel_layout_describe(ptr noundef %198, ptr noundef %199, i64 noundef 64)
  %201 = load ptr, ptr %4, align 8, !tbaa !4
  %202 = load ptr, ptr %5, align 8, !tbaa !22
  %203 = getelementptr inbounds nuw %struct.MixContext, ptr %202, i32 0, i32 2
  %204 = load i32, ptr %203, align 8, !tbaa !25
  %205 = load ptr, ptr %3, align 8, !tbaa !51
  %206 = getelementptr inbounds nuw %struct.AVFilterLink, ptr %205, i32 0, i32 5
  %207 = load i32, ptr %206, align 4, !tbaa !82
  %208 = call ptr @av_get_sample_fmt_name(i32 noundef %207)
  %209 = load ptr, ptr %3, align 8, !tbaa !51
  %210 = getelementptr inbounds nuw %struct.AVFilterLink, ptr %209, i32 0, i32 11
  %211 = load i32, ptr %210, align 8, !tbaa !84
  %212 = getelementptr inbounds [64 x i8], ptr %7, i64 0, i64 0
  call void (ptr, i32, ptr, ...) @av_log(ptr noundef %201, i32 noundef 40, ptr noundef @.str.3, i32 noundef %204, ptr noundef %208, i32 noundef %211, ptr noundef %212)
  store i32 0, ptr %2, align 4
  store i32 1, ptr %9, align 4
  br label %213

213:                                              ; preds = %195, %146, %109, %92, %56, %43
  call void @llvm.lifetime.end.p0(i64 64, ptr %7) #9
  call void @llvm.lifetime.end.p0(i64 4, ptr %6) #9
  call void @llvm.lifetime.end.p0(i64 8, ptr %5) #9
  call void @llvm.lifetime.end.p0(i64 8, ptr %4) #9
  %214 = load i32, ptr %2, align 4
  ret i32 %214
}