; Function Attrs: nounwind uwtable
define internal range(i32 -12, 1) i32 @config_output(ptr noundef initializes((96, 104)) %0) #1 {
  %2 = alloca [64 x i8], align 16
  %3 = load ptr, ptr %0, align 8, !tbaa !87
  %4 = getelementptr inbounds nuw i8, ptr %3, i64 72
  %5 = load ptr, ptr %4, align 8, !tbaa !4
  call void @llvm.lifetime.start.p0(i64 64, ptr nonnull %2) #9
  %6 = getelementptr inbounds nuw i8, ptr %0, i64 36
  %7 = load i32, ptr %6, align 4, !tbaa !93
  %8 = tail call i32 @av_sample_fmt_is_planar(i32 noundef %7) #9
  %9 = getelementptr inbounds nuw i8, ptr %5, i64 52
  store i32 %8, ptr %9, align 4, !tbaa !94
  %10 = getelementptr inbounds nuw i8, ptr %0, i64 64
  %11 = load i32, ptr %10, align 8, !tbaa !95
  %12 = getelementptr inbounds nuw i8, ptr %5, i64 48
  store i32 %11, ptr %12, align 8, !tbaa !96
  %13 = getelementptr inbounds nuw i8, ptr %0, i64 96
  store i32 1, ptr %13, align 8, !tbaa !80
  %.sroa.2.0..sroa_idx = getelementptr inbounds nuw i8, ptr %0, i64 100
  store i32 %11, ptr %.sroa.2.0..sroa_idx, align 4, !tbaa !80
  %14 = getelementptr inbounds nuw i8, ptr %5, i64 104
  store i64 -9223372036854775808, ptr %14, align 8, !tbaa !86
  %15 = tail call noalias ptr @av_mallocz(i64 noundef 24) #9
  %16 = getelementptr inbounds nuw i8, ptr %5, i64 112
  store ptr %15, ptr %16, align 8, !tbaa !46
  %.not = icmp eq ptr %15, null
  br i1 %.not, label %.loopexit, label %17

17:                                               ; preds = %1
  %18 = getelementptr inbounds nuw i8, ptr %5, i64 16
  %19 = load i32, ptr %18, align 8, !tbaa !20
  %20 = sext i32 %19 to i64
  %21 = tail call noalias ptr @av_calloc(i64 noundef %20, i64 noundef 8) #9
  %22 = getelementptr inbounds nuw i8, ptr %5, i64 56
  store ptr %21, ptr %22, align 8, !tbaa !42
  %.not61 = icmp eq ptr %21, null
  br i1 %.not61, label %.loopexit, label %23

23:                                               ; preds = %17
  %24 = getelementptr inbounds nuw i8, ptr %0, i64 72
  %25 = getelementptr inbounds nuw i8, ptr %0, i64 76
  %26 = load i32, ptr %25, align 4, !tbaa !97
  %27 = getelementptr inbounds nuw i8, ptr %5, i64 44
  store i32 %26, ptr %27, align 4, !tbaa !98
  %28 = load i32, ptr %18, align 8, !tbaa !20
  %29 = icmp sgt i32 %28, 0
  br i1 %29, label %.lr.ph, label %.._crit_edge_crit_edge

.._crit_edge_crit_edge:                           ; preds = %23
  %.pre76 = sext i32 %28 to i64
  br label %._crit_edge

30:                                               ; preds = %.lr.ph
  %indvars.iv.next = add nuw nsw i64 %indvars.iv, 1
  %31 = load i32, ptr %18, align 8, !tbaa !20
  %32 = sext i32 %31 to i64
  %33 = icmp slt i64 %indvars.iv.next, %32
  br i1 %33, label %.lr.ph, label %._crit_edge, !llvm.loop !99

.lr.ph:                                           ; preds = %23, %30
  %indvars.iv = phi i64 [ %indvars.iv.next, %30 ], [ 0, %23 ]
  %34 = load i32, ptr %6, align 4, !tbaa !93
  %35 = load i32, ptr %27, align 4, !tbaa !98
  %36 = tail call ptr @av_audio_fifo_alloc(i32 noundef %34, i32 noundef %35, i32 noundef 1024) #9
  %37 = load ptr, ptr %22, align 8, !tbaa !42
  %38 = getelementptr inbounds nuw ptr, ptr %37, i64 %indvars.iv
  store ptr %36, ptr %38, align 8, !tbaa !43
  %.not65 = icmp eq ptr %36, null
  br i1 %.not65, label %.loopexit, label %30

._crit_edge:                                      ; preds = %30, %.._crit_edge_crit_edge
  %.pre-phi = phi i64 [ %.pre76, %.._crit_edge_crit_edge ], [ %32, %30 ]
  %39 = tail call noalias ptr @av_malloc(i64 noundef %.pre-phi) #9
  %40 = getelementptr inbounds nuw i8, ptr %5, i64 64
  store ptr %39, ptr %40, align 8, !tbaa !79
  %.not62 = icmp eq ptr %39, null
  br i1 %.not62, label %.loopexit, label %41

41:                                               ; preds = %._crit_edge
  %42 = load i32, ptr %18, align 8, !tbaa !20
  %43 = sext i32 %42 to i64
  tail call void @llvm.memset.p0.i64(ptr nonnull align 1 %39, i8 1, i64 %43, i1 false)
  %44 = getelementptr inbounds nuw i8, ptr %5, i64 20
  store i32 %42, ptr %44, align 4, !tbaa !83
  %45 = tail call noalias ptr @av_calloc(i64 noundef %43, i64 noundef 4) #9
  %46 = getelementptr inbounds nuw i8, ptr %5, i64 72
  store ptr %45, ptr %46, align 8, !tbaa !100
  %47 = load i32, ptr %18, align 8, !tbaa !20
  %48 = sext i32 %47 to i64
  %49 = tail call noalias ptr @av_calloc(i64 noundef %48, i64 noundef 4) #9
  %50 = getelementptr inbounds nuw i8, ptr %5, i64 96
  store ptr %49, ptr %50, align 8, !tbaa !56
  %51 = load ptr, ptr %46, align 8, !tbaa !100
  %.not63 = icmp eq ptr %51, null
  %.not64 = icmp eq ptr %49, null
  %or.cond = select i1 %.not63, i1 true, i1 %.not64
  br i1 %or.cond, label %.loopexit, label %.preheader

.preheader:                                       ; preds = %41
  %52 = load i32, ptr %18, align 8, !tbaa !20
  %53 = icmp sgt i32 %52, 0
  br i1 %53, label %.lr.ph69, label %._crit_edge70

.lr.ph69:                                         ; preds = %.preheader
  %54 = getelementptr inbounds nuw i8, ptr %5, i64 88
  %55 = getelementptr inbounds nuw i8, ptr %5, i64 80
  %56 = load ptr, ptr %55, align 8, !tbaa !34
  %wide.trip.count = zext nneg i32 %52 to i64
  %.pre = load float, ptr %54, align 8, !tbaa !35
  br label %57

57:                                               ; preds = %.lr.ph69, %57
  %indvars.iv73 = phi i64 [ 0, %.lr.ph69 ], [ %indvars.iv.next74, %57 ]
  %58 = getelementptr inbounds nuw float, ptr %56, i64 %indvars.iv73
  %59 = load float, ptr %58, align 4, !tbaa !38
  %60 = fcmp nsz ult float %59, 0.000000e+00
  %61 = fneg nsz float %59
  %62 = select nsz i1 %60, float %61, float %59
  %63 = fdiv nsz float %.pre, %62
  %64 = getelementptr inbounds nuw float, ptr %49, i64 %indvars.iv73
  store float %63, ptr %64, align 4, !tbaa !38
  %indvars.iv.next74 = add nuw nsw i64 %indvars.iv73, 1
  %exitcond.not = icmp eq i64 %indvars.iv.next74, %wide.trip.count
  br i1 %exitcond.not, label %._crit_edge70, label %57, !llvm.loop !101

._crit_edge70:                                    ; preds = %57, %.preheader
  tail call fastcc void @calculate_scales(ptr noundef nonnull %5, i32 noundef 0)
  %65 = call i32 @av_channel_layout_describe(ptr noundef nonnull %24, ptr noundef nonnull %2, i64 noundef 64) #9
  %66 = load i32, ptr %18, align 8, !tbaa !20
  %67 = load i32, ptr %6, align 4, !tbaa !93
  %68 = call ptr @av_get_sample_fmt_name(i32 noundef %67) #9
  %69 = load i32, ptr %10, align 8, !tbaa !95
  call void (ptr, i32, ptr, ...) @av_log(ptr noundef %3, i32 noundef 40, ptr noundef nonnull @.str.3, i32 noundef %66, ptr noundef %68, i32 noundef %69, ptr noundef nonnull %2) #9
  br label %.loopexit

.loopexit:                                        ; preds = %.lr.ph, %41, %._crit_edge, %17, %1, %._crit_edge70
  %.0 = phi i32 [ 0, %._crit_edge70 ], [ -12, %1 ], [ -12, %17 ], [ -12, %._crit_edge ], [ -12, %41 ], [ -12, %.lr.ph ]
  call void @llvm.lifetime.end.p0(i64 64, ptr nonnull %2) #9
  ret i32 %.0
}